target datalayout = "e-m:e-p270:32:32-p271:32:32-p272:64:64-i64:64-i128:128-f80:128-n8:16:32:64-S128"
target triple = "x86_64-pc-linux-gnu"

%"struct.vcpkg::TripletInstance" = type { %"class.std::__cxx11::basic_string", i64 }
%"class.std::__cxx11::basic_string" = type { %"struct.std::__cxx11::basic_string<char>::_Alloc_hider", i64, %union.anon }
%"struct.std::__cxx11::basic_string<char>::_Alloc_hider" = type { ptr }
%union.anon = type { i64, [8 x i8] }
%"struct.vcpkg::StringView" = type { ptr, i64 }
%"struct.vcpkg::Triplet" = type { ptr }
%"struct.vcpkg::Optional" = type { %"struct.vcpkg::details::OptionalStorage" }
%"struct.vcpkg::details::OptionalStorage" = type { %"struct.vcpkg::details::OptionalStorageDtor" }
%"struct.vcpkg::details::OptionalStorageDtor" = type { i8, %union.anon.5 }
%union.anon.5 = type { i32 }
%"struct.__gnu_cxx::__ops::_Iter_equals_val" = type { ptr }

; Function Attrs: mustprogress nounwind uwtable
define linkonce_odr dso_local noundef zeroext i1 @_ZN9__gnu_cxx5__ops16_Iter_equals_valIKcEclIPS2_EEbT_(ptr noundef nonnull align 8 dereferenceable(8) %0, ptr noundef %1) #2 comdat align 2 {
  %3 = alloca ptr, align 8
  %4 = alloca ptr, align 8
  store ptr %0, ptr %3, align 8, !tbaa !368
  store ptr %1, ptr %4, align 8, !tbaa !30
  %5 = load ptr, ptr %3, align 8
  %6 = load ptr, ptr %4, align 8, !tbaa !30
  %7 = load i8, ptr %6, align 1, !tbaa !29
  %8 = sext i8 %7 to i32
  %9 = getelementptr inbounds nuw %"struct.__gnu_cxx::__ops::_Iter_equals_val", ptr %5, i32 0, i32 0
  %10 = load ptr, ptr %9, align 8, !tbaa !370
  %11 = load i8, ptr %10, align 1, !tbaa !29
  %12 = sext i8 %11 to i32
  %13 = icmp eq i32 %8, %12
  ret i1 %13
}

; Function Attrs: mustprogress uwtable
define linkonce_odr dso_local noundef ptr @_ZSt9__find_ifIPKcN9__gnu_cxx5__ops16_Iter_equals_valIS0_EEET_S6_S6_T0_St26random_access_iterator_tag(ptr noundef %0, ptr noundef %1, ptr %2) #5 comdat {
  %4 = alloca ptr, align 8
  %5 = alloca %"struct.__gnu_cxx::__ops::_Iter_equals_val", align 8
  %6 = alloca ptr, align 8
  %7 = alloca ptr, align 8
  %8 = alloca i64, align 8
  %9 = alloca i32, align 4
  %10 = getelementptr inbounds nuw %"struct.__gnu_cxx::__ops::_Iter_equals_val", ptr %5, i32 0, i32 0
  store ptr %2, ptr %10, align 8
  store ptr %0, ptr %6, align 8, !tbaa !30
  store ptr %1, ptr %7, align 8, !tbaa !30
  call void @llvm.lifetime.start.p0(i64 8, ptr %8) #4
  %11 = load ptr, ptr %7, align 8, !tbaa !30
  %12 = load ptr, ptr %6, align 8, !tbaa !30
  %13 = ptrtoint ptr %11 to i64
  %14 = ptrtoint ptr %12 to i64
  %15 = sub i64 %13, %14
  %16 = ashr i64 %15, 2
  store i64 %16, ptr %8, align 8, !tbaa !32
  br label %17

17:                                               ; preds = %49, %3
  %18 = load i64, ptr %8, align 8, !tbaa !32
  %19 = icmp sgt i64 %18, 0
  br i1 %19, label %20, label %52

20:                                               ; preds = %17
  %21 = load ptr, ptr %6, align 8, !tbaa !30
  %22 = call noundef zeroext i1 @_ZN9__gnu_cxx5__ops16_Iter_equals_valIKcEclIPS2_EEbT_(ptr noundef nonnull align 8 dereferenceable(8) %5, ptr noundef %21)
  br i1 %22, label %23, label %25

23:                                               ; preds = %20
  %24 = load ptr, ptr %6, align 8, !tbaa !30
  store ptr %24, ptr %4, align 8
  store i32 1, ptr %9, align 4
  br label %85

25:                                               ; preds = %20
  %26 = load ptr, ptr %6, align 8, !tbaa !30
  %27 = getelementptr inbounds nuw i8, ptr %26, i32 1
  store ptr %27, ptr %6, align 8, !tbaa !30
  %28 = load ptr, ptr %6, align 8, !tbaa !30
  %29 = call noundef zeroext i1 @_ZN9__gnu_cxx5__ops16_Iter_equals_valIKcEclIPS2_EEbT_(ptr noundef nonnull align 8 dereferenceable(8) %5, ptr noundef %28)
  br i1 %29, label %30, label %32

30:                                               ; preds = %25
  %31 = load ptr, ptr %6, align 8, !tbaa !30
  store ptr %31, ptr %4, align 8
  store i32 1, ptr %9, align 4
  br label %85

32:                                               ; preds = %25
  %33 = load ptr, ptr %6, align 8, !tbaa !30
  %34 = getelementptr inbounds nuw i8, ptr %33, i32 1
  store ptr %34, ptr %6, align 8, !tbaa !30
  %35 = load ptr, ptr %6, align 8, !tbaa !30
  %36 = call noundef zeroext i1 @_ZN9__gnu_cxx5__ops16_Iter_equals_valIKcEclIPS2_EEbT_(ptr noundef nonnull align 8 dereferenceable(8) %5, ptr noundef %35)
  br i1 %36, label %37, label %39

37:                                               ; preds = %32
  %38 = load ptr, ptr %6, align 8, !tbaa !30
  store ptr %38, ptr %4, align 8
  store i32 1, ptr %9, align 4
  br label %85

39:                                               ; preds = %32
  %40 = load ptr, ptr %6, align 8, !tbaa !30
  %41 = getelementptr inbounds nuw i8, ptr %40, i32 1
  store ptr %41, ptr %6, align 8, !tbaa !30
  %42 = load ptr, ptr %6, align 8, !tbaa !30
  %43 = call noundef zeroext i1 @_ZN9__gnu_cxx5__ops16_Iter_equals_valIKcEclIPS2_EEbT_(ptr noundef nonnull align 8 dereferenceable(8) %5, ptr noundef %42)
  br i1 %43, label %44, label %46

44:                                               ; preds = %39
  %45 = load ptr, ptr %6, align 8, !tbaa !30
  store ptr %45, ptr %4, align 8
  store i32 1, ptr %9, align 4
  br label %85

46:                                               ; preds = %39
  %47 = load ptr, ptr %6, align 8, !tbaa !30
  %48 = getelementptr inbounds nuw i8, ptr %47, i32 1
  store ptr %48, ptr %6, align 8, !tbaa !30
  br label %49

49:                                               ; preds = %46
  %50 = load i64, ptr %8, align 8, !tbaa !32
  %51 = add nsw i64 %50, -1
  store i64 %51, ptr %8, align 8, !tbaa !32
  br label %17, !llvm.loop !367

52:                                               ; preds = %17
  %53 = load ptr, ptr %7, align 8, !tbaa !30
  %54 = load ptr, ptr %6, align 8, !tbaa !30
  %55 = ptrtoint ptr %53 to i64
  %56 = ptrtoint ptr %54 to i64
  %57 = sub i64 %55, %56
  switch i64 %57, label %83 [
    i64 3, label %58
    i64 2, label %66
    i64 1, label %74
    i64 0, label %82
  ]

58:                                               ; preds = %52
  %59 = load ptr, ptr %6, align 8, !tbaa !30
  %60 = call noundef zeroext i1 @_ZN9__gnu_cxx5__ops16_Iter_equals_valIKcEclIPS2_EEbT_(ptr noundef nonnull align 8 dereferenceable(8) %5, ptr noundef %59)
  br i1 %60, label %61, label %63

61:                                               ; preds = %58
  %62 = load ptr, ptr %6, align 8, !tbaa !30
  store ptr %62, ptr %4, align 8
  store i32 1, ptr %9, align 4
  br label %85

63:                                               ; preds = %58
  %64 = load ptr, ptr %6, align 8, !tbaa !30
  %65 = getelementptr inbounds nuw i8, ptr %64, i32 1
  store ptr %65, ptr %6, align 8, !tbaa !30
  br label %66

66:                                               ; preds = %52, %63
  %67 = load ptr, ptr %6, align 8, !tbaa !30
  %68 = call noundef zeroext i1 @_ZN9__gnu_cxx5__ops16_Iter_equals_valIKcEclIPS2_EEbT_(ptr noundef nonnull align 8 dereferenceable(8) %5, ptr noundef %67)
  br i1 %68, label %69, label %71

69:                                               ; preds = %66
  %70 = load ptr, ptr %6, align 8, !tbaa !30
  store ptr %70, ptr %4, align 8
  store i32 1, ptr %9, align 4
  br label %85

71:                                               ; preds = %66
  %72 = load ptr, ptr %6, align 8, !tbaa !30
  %73 = getelementptr inbounds nuw i8, ptr %72, i32 1
  store ptr %73, ptr %6, align 8, !tbaa !30
  br label %74

74:                                               ; preds = %52, %71
  %75 = load ptr, ptr %6, align 8, !tbaa !30
  %76 = call noundef zeroext i1 @_ZN9__gnu_cxx5__ops16_Iter_equals_valIKcEclIPS2_EEbT_(ptr noundef nonnull align 8 dereferenceable(8) %5, ptr noundef %75)
  br i1 %76, label %77, label %79

77:                                               ; preds = %74
  %78 = load ptr, ptr %6, align 8, !tbaa !30
  store ptr %78, ptr %4, align 8
  store i32 1, ptr %9, align 4
  br label %85

79:                                               ; preds = %74
  %80 = load ptr, ptr %6, align 8, !tbaa !30
  %81 = getelementptr inbounds nuw i8, ptr %80, i32 1
  store ptr %81, ptr %6, align 8, !tbaa !30
  br label %82

82:                                               ; preds = %52, %79
  br label %83

83:                                               ; preds = %52, %82
  %84 = load ptr, ptr %7, align 8, !tbaa !30
  store ptr %84, ptr %4, align 8
  store i32 1, ptr %9, align 4
  br label %85

85:                                               ; preds = %83, %77, %69, %61, %44, %37, %30, %23
  call void @llvm.lifetime.end.p0(i64 8, ptr %8) #4
  %86 = load ptr, ptr %4, align 8
  ret ptr %86
}

; Function Attrs: inlinehint mustprogress nounwind uwtable
define linkonce_odr dso_local void @_ZSt19__iterator_categoryIPKcENSt15iterator_traitsIT_E17iterator_categoryERKS3_(ptr noundef nonnull align 8 dereferenceable(8) %0) #3 comdat {
  %2 = alloca ptr, align 8
  store ptr %0, ptr %2, align 8, !tbaa !141
  ret void
}

; Function Attrs: mustprogress nounwind uwtable
define linkonce_odr dso_local void @_ZN9__gnu_cxx5__ops16_Iter_equals_valIKcEC2ERS2_(ptr noundef nonnull align 8 dereferenceable(8) %0, ptr noundef nonnull align 1 dereferenceable(1) %1) unnamed_addr #2 comdat align 2 {
  %3 = alloca ptr, align 8
  %4 = alloca ptr, align 8
  store ptr %0, ptr %3, align 8, !tbaa !368
  store ptr %1, ptr %4, align 8, !tbaa !30
  %5 = load ptr, ptr %3, align 8
  %6 = getelementptr inbounds nuw %"struct.__gnu_cxx::__ops::_Iter_equals_val", ptr %5, i32 0, i32 0
  %7 = load ptr, ptr %4, align 8, !tbaa !30
  store ptr %7, ptr %6, align 8, !tbaa !30
  ret void
}

; Function Attrs: inlinehint mustprogress uwtable
define linkonce_odr dso_local noundef ptr @_ZSt9__find_ifIPKcN9__gnu_cxx5__ops16_Iter_equals_valIS0_EEET_S6_S6_T0_(ptr noundef %0, ptr noundef %1, ptr %2) #9 comdat {
  %4 = alloca %"struct.__gnu_cxx::__ops::_Iter_equals_val", align 8
  %5 = alloca ptr, align 8
  %6 = alloca ptr, align 8
  %7 = alloca %"struct.__gnu_cxx::__ops::_Iter_equals_val", align 8
  %8 = getelementptr inbounds nuw %"struct.__gnu_cxx::__ops::_Iter_equals_val", ptr %4, i32 0, i32 0
  store ptr %2, ptr %8, align 8
  store ptr %0, ptr %5, align 8, !tbaa !30
  store ptr %1, ptr %6, align 8, !tbaa !30
  %9 = load ptr, ptr %5, align 8, !tbaa !30
  %10 = load ptr, ptr %6, align 8, !tbaa !30
  call void @llvm.memcpy.p0.p0.i64(ptr align 8 %7, ptr align 8 %4, i64 8, i1 false), !tbaa.struct !366
  call void @_ZSt19__iterator_categoryIPKcENSt15iterator_traitsIT_E17iterator_categoryERKS3_(ptr noundef nonnull align 8 dereferenceable(8) %5)
  %11 = getelementptr inbounds nuw %"struct.__gnu_cxx::__ops::_Iter_equals_val", ptr %7, i32 0, i32 0
  %12 = load ptr, ptr %11, align 8
  %13 = call noundef ptr @_ZSt9__find_ifIPKcN9__gnu_cxx5__ops16_Iter_equals_valIS0_EEET_S6_S6_T0_St26random_access_iterator_tag(ptr noundef %9, ptr noundef %10, ptr %12)
  ret ptr %13
}

; Function Attrs: inlinehint mustprogress uwtable
define linkonce_odr dso_local ptr @_ZN9__gnu_cxx5__ops17__iter_equals_valIKcEENS0_16_Iter_equals_valIT_EERS4_(ptr noundef nonnull align 1 dereferenceable(1) %0) #9 comdat {
  %2 = alloca %"struct.__gnu_cxx::__ops::_Iter_equals_val", align 8
  %3 = alloca ptr, align 8
  store ptr %0, ptr %3, align 8, !tbaa !30
  %4 = load ptr, ptr %3, align 8, !tbaa !30
  call void @_ZN9__gnu_cxx5__ops16_Iter_equals_valIKcEC2ERS2_(ptr noundef nonnull align 8 dereferenceable(8) %2, ptr noundef nonnull align 1 dereferenceable(1) %4)
  %5 = getelementptr inbounds nuw %"struct.__gnu_cxx::__ops::_Iter_equals_val", ptr %2, i32 0, i32 0
  %6 = load ptr, ptr %5, align 8
  ret ptr %6
}

; Function Attrs: noinline noreturn nounwind uwtable
define linkonce_odr hidden void @__clang_call_terminate(ptr noundef %0) #10 comdat {
  %2 = call ptr @__cxa_begin_catch(ptr %0) #4
  call void @_ZSt9terminatev() #21
  unreachable
}

; Function Attrs: mustprogress nounwind uwtable
define linkonce_odr dso_local void @_ZN5vcpkg10StringViewC2EPKcS2_(ptr noundef nonnull align 8 dereferenceable(16) %0, ptr noundef %1, ptr noundef %2) unnamed_addr #2 comdat align 2 {
  %4 = alloca ptr, align 8
  %5 = alloca ptr, align 8
  %6 = alloca ptr, align 8
  store ptr %0, ptr %4, align 8, !tbaa !33
  store ptr %1, ptr %5, align 8, !tbaa !30
  store ptr %2, ptr %6, align 8, !tbaa !30
  %7 = load ptr, ptr %4, align 8
  %8 = getelementptr inbounds nuw %"struct.vcpkg::StringView", ptr %7, i32 0, i32 0
  %9 = load ptr, ptr %5, align 8, !tbaa !30
  store ptr %9, ptr %8, align 8, !tbaa !35
  %10 = getelementptr inbounds nuw %"struct.vcpkg::StringView", ptr %7, i32 0, i32 1
  %11 = load ptr, ptr %6, align 8, !tbaa !30
  %12 = load ptr, ptr %5, align 8, !tbaa !30
  %13 = ptrtoint ptr %11 to i64
  %14 = ptrtoint ptr %12 to i64
  %15 = sub i64 %13, %14
  store i64 %15, ptr %10, align 8, !tbaa !37
  ret void
}

; Function Attrs: inlinehint mustprogress uwtable
define linkonce_odr dso_local noundef ptr @_ZSt4findIPKccET_S2_S2_RKT0_(ptr noundef %0, ptr noundef %1, ptr noundef nonnull align 1 dereferenceable(1) %2) #9 comdat {
  %4 = alloca ptr, align 8
  %5 = alloca ptr, align 8
  %6 = alloca ptr, align 8
  %7 = alloca %"struct.__gnu_cxx::__ops::_Iter_equals_val", align 8
  store ptr %0, ptr %4, align 8, !tbaa !30
  store ptr %1, ptr %5, align 8, !tbaa !30
  store ptr %2, ptr %6, align 8, !tbaa !30
  %8 = load ptr, ptr %4, align 8, !tbaa !30
  %9 = load ptr, ptr %5, align 8, !tbaa !30
  %10 = load ptr, ptr %6, align 8, !tbaa !30
  %11 = call ptr @_ZN9__gnu_cxx5__ops17__iter_equals_valIKcEENS0_16_Iter_equals_valIT_EERS4_(ptr noundef nonnull align 1 dereferenceable(1) %10)
  %12 = getelementptr inbounds nuw %"struct.__gnu_cxx::__ops::_Iter_equals_val", ptr %7, i32 0, i32 0
  store ptr %11, ptr %12, align 8
  %13 = getelementptr inbounds nuw %"struct.__gnu_cxx::__ops::_Iter_equals_val", ptr %7, i32 0, i32 0
  %14 = load ptr, ptr %13, align 8
  %15 = call noundef ptr @_ZSt9__find_ifIPKcN9__gnu_cxx5__ops16_Iter_equals_valIS0_EEET_S6_S6_T0_(ptr noundef %8, ptr noundef %9, ptr %14)
  ret ptr %15
}

; Function Attrs: mustprogress nounwind uwtable
define linkonce_odr dso_local noundef ptr @_ZNK5vcpkg10StringView3endEv(ptr noundef nonnull align 8 dereferenceable(16) %0) #2 comdat align 2 {
  %2 = alloca ptr, align 8
  store ptr %0, ptr %2, align 8, !tbaa !33
  %3 = load ptr, ptr %2, align 8
  %4 = getelementptr inbounds nuw %"struct.vcpkg::StringView", ptr %3, i32 0, i32 0
  %5 = load ptr, ptr %4, align 8, !tbaa !35
  %6 = getelementptr inbounds nuw %"struct.vcpkg::StringView", ptr %3, i32 0, i32 1
  %7 = load i64, ptr %6, align 8, !tbaa !37
  %8 = getelementptr inbounds nuw i8, ptr %5, i64 %7
  ret ptr %8
}

; Function Attrs: mustprogress nounwind uwtable
define linkonce_odr dso_local noundef ptr @_ZNK5vcpkg10StringView5beginEv(ptr noundef nonnull align 8 dereferenceable(16) %0) #2 comdat align 2 {
  %2 = alloca ptr, align 8
  store ptr %0, ptr %2, align 8, !tbaa !33
  %3 = load ptr, ptr %2, align 8
  %4 = getelementptr inbounds nuw %"struct.vcpkg::StringView", ptr %3, i32 0, i32 0
  %5 = load ptr, ptr %4, align 8, !tbaa !35
  ret ptr %5
}

; Function Attrs: mustprogress nounwind uwtable
define dso_local noundef nonnull align 8 dereferenceable(32) ptr @_ZNK5vcpkg7Triplet14canonical_nameB5cxx11Ev(ptr noundef nonnull align 8 dereferenceable(8) %0) #2 align 2 {
  %2 = alloca ptr, align 8
  store ptr %0, ptr %2, align 8, !tbaa !25
  %3 = load ptr, ptr %2, align 8
  %4 = getelementptr inbounds nuw %"struct.vcpkg::Triplet", ptr %3, i32 0, i32 0
  %5 = load ptr, ptr %4, align 8, !tbaa !27
  %6 = getelementptr inbounds nuw %"struct.vcpkg::TripletInstance", ptr %5, i32 0, i32 0
  ret ptr %6
}

; Function Attrs: mustprogress nounwind uwtable
define dso_local void @_ZNK5vcpkg7Triplet18guess_architectureEv(ptr dead_on_unwind noalias writable sret(%"struct.vcpkg::Optional") align 4 %0, ptr noundef nonnull align 8 dereferenceable(8) %1) #2 align 2 personality ptr @__gxx_personality_v0 {
  %3 = alloca ptr, align 8
  %4 = alloca ptr, align 8
  %5 = alloca %"struct.vcpkg::StringView", align 8
  %6 = alloca ptr, align 8
  %7 = alloca i8, align 1
  %8 = alloca %"struct.vcpkg::StringView", align 8
  %9 = alloca %"struct.vcpkg::StringView", align 8
  store ptr %0, ptr %3, align 8
  store ptr %1, ptr %4, align 8, !tbaa !25
  %10 = load ptr, ptr %4, align 8
  call void @llvm.lifetime.start.p0(i64 16, ptr %5) #4
  %11 = call noundef nonnull align 8 dereferenceable(32) ptr @_ZNK5vcpkg7Triplet14canonical_nameB5cxx11Ev(ptr noundef nonnull align 8 dereferenceable(8) %10)
  call void @_ZN5vcpkg10StringViewC1ERKNSt7__cxx1112basic_stringIcSt11char_traitsIcESaIcEEE(ptr noundef nonnull align 8 dereferenceable(16) %5, ptr noundef nonnull align 8 dereferenceable(32) %11) #4
  call void @llvm.lifetime.start.p0(i64 8, ptr %6) #4
  %12 = call noundef ptr @_ZNK5vcpkg10StringView5beginEv(ptr noundef nonnull align 8 dereferenceable(16) %5) #4
  %13 = call noundef ptr @_ZNK5vcpkg10StringView3endEv(ptr noundef nonnull align 8 dereferenceable(16) %5) #4
  call void @llvm.lifetime.start.p0(i64 1, ptr %7) #4
  store i8 45, ptr %7, align 1, !tbaa !29
  %14 = invoke noundef ptr @_ZSt4findIPKccET_S2_S2_RKT0_(ptr noundef %12, ptr noundef %13, ptr noundef nonnull align 1 dereferenceable(1) %7)
          to label %15 unwind label %27

15:                                               ; preds = %2
  call void @llvm.lifetime.end.p0(i64 1, ptr %7) #4
  store ptr %14, ptr %6, align 8, !tbaa !30
  %16 = load ptr, ptr %6, align 8, !tbaa !30
  %17 = call noundef ptr @_ZNK5vcpkg10StringView3endEv(ptr noundef nonnull align 8 dereferenceable(16) %5) #4
  %18 = icmp ne ptr %16, %17
  br i1 %18, label %19, label %22

19:                                               ; preds = %15
  call void @llvm.lifetime.start.p0(i64 16, ptr %8) #4
  %20 = call noundef ptr @_ZNK5vcpkg10StringView5beginEv(ptr noundef nonnull align 8 dereferenceable(16) %5) #4
  %21 = load ptr, ptr %6, align 8, !tbaa !30
  call void @_ZN5vcpkg10StringViewC2EPKcS2_(ptr noundef nonnull align 8 dereferenceable(16) %8, ptr noundef %20, ptr noundef %21) #4
  call void @llvm.memcpy.p0.p0.i64(ptr align 8 %5, ptr align 8 %8, i64 16, i1 false), !tbaa.struct !31
  call void @llvm.lifetime.end.p0(i64 16, ptr %8) #4
  br label %22

22:                                               ; preds = %19, %15
  call void @llvm.memcpy.p0.p0.i64(ptr align 8 %9, ptr align 8 %5, i64 16, i1 false), !tbaa.struct !31
  %23 = getelementptr inbounds nuw { ptr, i64 }, ptr %9, i32 0, i32 0
  %24 = load ptr, ptr %23, align 8
  %25 = getelementptr inbounds nuw { ptr, i64 }, ptr %9, i32 0, i32 1
  %26 = load i64, ptr %25, align 8
  call void @_ZN5vcpkg19to_cpu_architectureENS_10StringViewE(ptr dead_on_unwind writable sret(%"struct.vcpkg::Optional") align 4 %0, ptr %24, i64 %26) #4
  call void @llvm.lifetime.end.p0(i64 8, ptr %6) #4
  call void @llvm.lifetime.end.p0(i64 16, ptr %5) #4
  ret void

27:                                               ; preds = %2
  %28 = landingpad { ptr, i32 }
          catch ptr null
  %29 = extractvalue { ptr, i32 } %28, 0
  call void @__clang_call_terminate(ptr %29) #21
  unreachable
}