; Function Attrs: mustprogress nounwind uwtable
define dso_local void @_ZNK5vcpkg7Triplet18guess_architectureEv(ptr dead_on_unwind noalias writable sret(%"struct.vcpkg::Optional") align 4 %0, ptr noundef nonnull readonly align 8 captures(none) dereferenceable(8) %1) local_unnamed_addr #8 align 2 personality ptr @__gxx_personality_v0 {
  %3 = alloca %"struct.vcpkg::StringView", align 8
  call void @llvm.lifetime.start.p0(i64 16, ptr nonnull %3) #26
  %4 = load ptr, ptr %1, align 8, !tbaa !29
  call void @_ZN5vcpkg10StringViewC1ERKNSt7__cxx1112basic_stringIcSt11char_traitsIcESaIcEEE(ptr noundef nonnull align 8 dereferenceable(16) %3, ptr noundef nonnull align 8 dereferenceable(32) %4) #26
  %5 = load ptr, ptr %3, align 8, !tbaa !34
  %6 = getelementptr inbounds nuw i8, ptr %3, i64 8
  %7 = load i64, ptr %6, align 8, !tbaa !36
  %8 = getelementptr inbounds nuw i8, ptr %5, i64 %7
  %9 = ptrtoint ptr %8 to i64
  %10 = ptrtoint ptr %5 to i64
  %11 = ashr i64 %7, 2
  %12 = icmp sgt i64 %11, 0
  br i1 %12, label %.lr.ph.i.i.i, label %._crit_edge.i.i.i

.lr.ph.i.i.i:                                     ; preds = %2
  %13 = and i64 %7, -4
  %scevgep.i.i.i = getelementptr i8, ptr %5, i64 %13
  br label %14

14:                                               ; preds = %29, %.lr.ph.i.i.i
  %.047.i.i.i = phi i64 [ %11, %.lr.ph.i.i.i ], [ %31, %29 ]
  %.02946.i.i.i = phi ptr [ %5, %.lr.ph.i.i.i ], [ %30, %29 ]
  %15 = load i8, ptr %.02946.i.i.i, align 1, !tbaa !13
  %16 = icmp eq i8 %15, 45
  br i1 %16, label %_ZSt4findIPKccET_S2_S2_RKT0_.exit, label %17

17:                                               ; preds = %14
  %18 = getelementptr inbounds nuw i8, ptr %.02946.i.i.i, i64 1
  %19 = load i8, ptr %18, align 1, !tbaa !13
  %20 = icmp eq i8 %19, 45
  br i1 %20, label %_ZSt4findIPKccET_S2_S2_RKT0_.exit.loopexit.split.loop.exit24, label %21

21:                                               ; preds = %17
  %22 = getelementptr inbounds nuw i8, ptr %.02946.i.i.i, i64 2
  %23 = load i8, ptr %22, align 1, !tbaa !13
  %24 = icmp eq i8 %23, 45
  br i1 %24, label %_ZSt4findIPKccET_S2_S2_RKT0_.exit.loopexit.split.loop.exit22, label %25

25:                                               ; preds = %21
  %26 = getelementptr inbounds nuw i8, ptr %.02946.i.i.i, i64 3
  %27 = load i8, ptr %26, align 1, !tbaa !13
  %28 = icmp eq i8 %27, 45
  br i1 %28, label %_ZSt4findIPKccET_S2_S2_RKT0_.exit.loopexit.split.loop.exit, label %29

29:                                               ; preds = %25
  %30 = getelementptr inbounds nuw i8, ptr %.02946.i.i.i, i64 4
  %31 = add nsw i64 %.047.i.i.i, -1
  %32 = icmp sgt i64 %.047.i.i.i, 1
  br i1 %32, label %14, label %._crit_edge.loopexit.i.i.i, !llvm.loop !37

._crit_edge.loopexit.i.i.i:                       ; preds = %29
  %.pre54.i.i.i = ptrtoint ptr %scevgep.i.i.i to i64
  br label %._crit_edge.i.i.i

._crit_edge.i.i.i:                                ; preds = %._crit_edge.loopexit.i.i.i, %2
  %.pre-phi.i.i.i = phi i64 [ %.pre54.i.i.i, %._crit_edge.loopexit.i.i.i ], [ %10, %2 ]
  %.029.lcssa.i.i.i = phi ptr [ %scevgep.i.i.i, %._crit_edge.loopexit.i.i.i ], [ %5, %2 ]
  %33 = sub i64 %9, %.pre-phi.i.i.i
  switch i64 %33, label %_ZSt4findIPKccET_S2_S2_RKT0_.exit.thread [
    i64 3, label %34
    i64 2, label %._crit_edge._crit_edge.i.i.i
    i64 1, label %._crit_edge._crit_edge52.i.i.i
  ]

34:                                               ; preds = %._crit_edge.i.i.i
  %35 = load i8, ptr %.029.lcssa.i.i.i, align 1, !tbaa !13
  %36 = icmp eq i8 %35, 45
  br i1 %36, label %_ZSt4findIPKccET_S2_S2_RKT0_.exit, label %37

37:                                               ; preds = %34
  %38 = getelementptr inbounds nuw i8, ptr %.029.lcssa.i.i.i, i64 1
  br label %._crit_edge._crit_edge.i.i.i

._crit_edge._crit_edge.i.i.i:                     ; preds = %._crit_edge.i.i.i, %37
  %.1.i.i.i = phi ptr [ %38, %37 ], [ %.029.lcssa.i.i.i, %._crit_edge.i.i.i ]
  %39 = load i8, ptr %.1.i.i.i, align 1, !tbaa !13
  %40 = icmp eq i8 %39, 45
  br i1 %40, label %_ZSt4findIPKccET_S2_S2_RKT0_.exit, label %41

41:                                               ; preds = %._crit_edge._crit_edge.i.i.i
  %42 = getelementptr inbounds nuw i8, ptr %.1.i.i.i, i64 1
  br label %._crit_edge._crit_edge52.i.i.i

._crit_edge._crit_edge52.i.i.i:                   ; preds = %._crit_edge.i.i.i, %41
  %.2.i.i.i = phi ptr [ %42, %41 ], [ %.029.lcssa.i.i.i, %._crit_edge.i.i.i ]
  %43 = load i8, ptr %.2.i.i.i, align 1, !tbaa !13
  %44 = icmp eq i8 %43, 45
  br i1 %44, label %_ZSt4findIPKccET_S2_S2_RKT0_.exit, label %_ZSt4findIPKccET_S2_S2_RKT0_.exit.thread

_ZSt4findIPKccET_S2_S2_RKT0_.exit.loopexit.split.loop.exit: ; preds = %25
  %45 = getelementptr inbounds nuw i8, ptr %.02946.i.i.i, i64 3
  br label %_ZSt4findIPKccET_S2_S2_RKT0_.exit

_ZSt4findIPKccET_S2_S2_RKT0_.exit.loopexit.split.loop.exit22: ; preds = %21
  %46 = getelementptr inbounds nuw i8, ptr %.02946.i.i.i, i64 2
  br label %_ZSt4findIPKccET_S2_S2_RKT0_.exit

_ZSt4findIPKccET_S2_S2_RKT0_.exit.loopexit.split.loop.exit24: ; preds = %17
  %47 = getelementptr inbounds nuw i8, ptr %.02946.i.i.i, i64 1
  br label %_ZSt4findIPKccET_S2_S2_RKT0_.exit

_ZSt4findIPKccET_S2_S2_RKT0_.exit:                ; preds = %14, %_ZSt4findIPKccET_S2_S2_RKT0_.exit.loopexit.split.loop.exit, %_ZSt4findIPKccET_S2_S2_RKT0_.exit.loopexit.split.loop.exit22, %_ZSt4findIPKccET_S2_S2_RKT0_.exit.loopexit.split.loop.exit24, %._crit_edge._crit_edge52.i.i.i, %._crit_edge._crit_edge.i.i.i, %34
  %.028.i.i.i = phi ptr [ %.029.lcssa.i.i.i, %34 ], [ %.1.i.i.i, %._crit_edge._crit_edge.i.i.i ], [ %.2.i.i.i, %._crit_edge._crit_edge52.i.i.i ], [ %45, %_ZSt4findIPKccET_S2_S2_RKT0_.exit.loopexit.split.loop.exit ], [ %46, %_ZSt4findIPKccET_S2_S2_RKT0_.exit.loopexit.split.loop.exit22 ], [ %47, %_ZSt4findIPKccET_S2_S2_RKT0_.exit.loopexit.split.loop.exit24 ], [ %.02946.i.i.i, %14 ]
  %.not = icmp eq ptr %.028.i.i.i, %8
  br i1 %.not, label %_ZSt4findIPKccET_S2_S2_RKT0_.exit.thread, label %48

48:                                               ; preds = %_ZSt4findIPKccET_S2_S2_RKT0_.exit
  %49 = ptrtoint ptr %.028.i.i.i to i64
  %50 = sub i64 %49, %10
  store i64 %50, ptr %6, align 8, !tbaa !38
  br label %_ZSt4findIPKccET_S2_S2_RKT0_.exit.thread

_ZSt4findIPKccET_S2_S2_RKT0_.exit.thread:         ; preds = %._crit_edge._crit_edge52.i.i.i, %._crit_edge.i.i.i, %48, %_ZSt4findIPKccET_S2_S2_RKT0_.exit
  %.sroa.2.0.copyload = phi i64 [ %7, %._crit_edge._crit_edge52.i.i.i ], [ %7, %._crit_edge.i.i.i ], [ %50, %48 ], [ %7, %_ZSt4findIPKccET_S2_S2_RKT0_.exit ]
  call void @_ZN5vcpkg19to_cpu_architectureENS_10StringViewE(ptr dead_on_unwind writable sret(%"struct.vcpkg::Optional") align 4 %0, ptr %5, i64 %.sroa.2.0.copyload) #26
  call void @llvm.lifetime.end.p0(i64 16, ptr nonnull %3) #26
  ret void
}